Certificate Request:
    Data:
        Version: 1 (0x0)
        Subject: C = IT, ST = Trentino Alto Adige, L = Povo, O = Networking II project, CN = hss.localdomain
        Subject Public Key Info:
            Public Key Algorithm: rsaEncryption
                RSA Public-Key: (1024 bit)
                Modulus:
                    00:c9:93:07:d7:22:82:8d:05:5b:b2:67:fd:fa:86:
                    6d:be:22:ad:d5:58:eb:9a:fc:59:01:be:85:ab:25:
                    c1:eb:da:58:dc:84:78:ce:6c:f1:dc:37:55:6a:73:
                    55:79:5a:51:1d:ad:b6:68:16:00:73:74:ce:ef:20:
                    d0:fd:22:a4:a2:7a:9f:a9:04:cc:39:e1:2f:c7:87:
                    62:b3:01:c7:a9:e3:7e:9c:07:bc:7a:a3:78:4a:81:
                    90:0f:aa:ba:5d:b1:bd:17:48:78:ef:34:2e:ae:de:
                    e3:a8:14:d0:48:e6:ef:bd:2a:44:2e:02:ca:28:cf:
                    ce:3c:75:a4:10:20:2d:f4:bb
                Exponent: 65537 (0x10001)
        Attributes:
        Requested Extensions:
            X509v3 Basic Constraints: 
                CA:FALSE
            X509v3 Subject Key Identifier: 
                3A:9E:9D:FD:FC:0D:65:BD:FD:4A:EC:04:3D:47:25:D8:AA:58:C2:EF
    Signature Algorithm: sha256WithRSAEncryption
         0f:ec:31:85:a7:f5:f1:83:1f:9f:3b:59:7c:5d:c1:90:08:43:
         ca:6c:7b:ae:1f:c9:1e:8a:d3:60:79:7a:e3:96:52:8a:ab:75:
         f3:f4:76:97:37:f3:ab:f1:25:56:15:03:b3:c7:82:55:44:63:
         2d:26:88:3b:8a:7d:7d:da:80:ee:81:4e:f9:0f:b0:46:78:6b:
         d8:fa:b3:91:7a:cd:91:27:50:a8:47:68:6c:73:bb:c3:42:ab:
         c1:85:c0:8d:18:68:b0:ac:78:dc:9a:5b:e7:ea:f6:5a:f2:ff:
         60:dd:a6:dd:3d:8c:b9:c0:b6:39:2d:b1:32:db:ce:73:ef:af:
         d6:2f
-----BEGIN CERTIFICATE-----
MIICaTCCAdICFFzXhiZcdj+FTSuRMU8G8nLn7uu0MA0GCSqGSIb3DQEBCwUAMHMx
CzAJBgNVBAYTAklUMRwwGgYDVQQIDBNUcmVudGlubyBBbHRvIEFkaWdlMQ0wCwYD
VQQHDARQb3ZvMR4wHAYDVQQKDBVOZXR3b3JraW5nIElJIHByb2plY3QxFzAVBgNV
BAMMDmNhLmxvY2FsZG9tYWluMB4XDTIyMDEyNTE4MjQzOVoXDTMyMDEyNTE4MjQz
OVowdDELMAkGA1UEBhMCSVQxHDAaBgNVBAgME1RyZW50aW5vIEFsdG8gQWRpZ2Ux
DTALBgNVBAcMBFBvdm8xHjAcBgNVBAoMFU5ldHdvcmtpbmcgSUkgcHJvamVjdDEY
MBYGA1UEAwwPaHNzLmxvY2FsZG9tYWluMIGfMA0GCSqGSIb3DQEBAQUAA4GNADCB
iQKBgQDJkwfXIoKNBVuyZ/36hm2+Iq3VWOua/FkBvoWrJcHr2ljchHjObPHcN1Vq
c1V5WlEdrbZoFgBzdM7vIND9IqSiep+pBMw54S/Hh2KzAcep436cB7x6o3hKgZAP
qrpdsb0XSHjvNC6u3uOoFNBI5u+9KkQuAsooz848daQQIC30uwIDAQABMA0GCSqG
SIb3DQEBCwUAA4GBAJyllLdlmCxI/evDhfYDfYVwret4byglLGvXvcbFK4CR1+kd
419HIZoDwL3ujr+Va+zGC27diNA6ut16ztHmoqpKAfTvkVXeuqqs5+GU2ttGfafN
sfI4vqZH/2krat/772Ci0O0r2q5QqAkKM7lrOKX93TYY6Iq+lPZgKWXnKyEw
-----END CERTIFICATE-----
