Certificate Request:
    Data:
        Version: 1 (0x0)
        Subject: C = IT, ST = Trentino Alto Adige, L = Povo, O = Networking II project, CN = hss.localdomain
        Subject Public Key Info:
            Public Key Algorithm: rsaEncryption
                RSA Public-Key: (1024 bit)
                Modulus:
                    00:f2:03:e9:67:16:7c:df:8e:ae:6d:2c:05:83:9a:
                    c2:9f:38:d4:64:47:8b:49:25:d7:d6:c1:e4:f0:2d:
                    71:3d:8f:d7:74:76:91:4c:31:d9:52:34:18:55:21:
                    c9:ae:99:c2:32:1c:51:de:c8:b1:54:3b:4d:e7:cc:
                    22:3a:c8:c2:a7:32:de:23:df:42:e9:c4:a0:9c:a6:
                    45:5f:09:52:a6:15:1b:c3:58:13:3e:c2:12:46:53:
                    84:fe:be:a5:a1:62:92:df:71:f7:d7:52:85:92:6c:
                    74:b6:22:e6:f1:e1:e8:be:bd:53:52:ff:58:d5:40:
                    12:73:2b:5f:40:9d:91:8e:d1
                Exponent: 65537 (0x10001)
        Attributes:
        Requested Extensions:
            X509v3 Basic Constraints: 
                CA:FALSE
            X509v3 Subject Key Identifier: 
                4A:A4:39:8A:0C:46:03:EC:53:DB:B0:8B:F6:C8:85:01:86:28:45:34
    Signature Algorithm: sha256WithRSAEncryption
         91:88:34:aa:d1:5d:08:42:72:21:75:94:1d:fb:88:0d:e9:12:
         f6:08:d2:21:c2:63:98:25:6d:08:90:22:8a:78:18:d2:12:a4:
         50:c6:22:05:e5:ca:7c:0a:8f:fb:e1:44:8e:f7:a2:93:c1:b4:
         e1:9b:0e:d8:96:42:7d:b3:4b:5d:dd:5c:67:20:7c:0c:c0:b5:
         57:c5:1d:47:c9:ef:9e:a0:17:84:e0:cb:f6:6c:82:ed:56:ca:
         8d:82:a3:2c:5b:09:38:28:c3:bf:5c:d4:10:4f:ae:0e:1c:a4:
         dd:10:f1:96:c9:28:89:d6:29:0c:16:2e:d8:cd:0d:85:ab:9f:
         99:2e
-----BEGIN CERTIFICATE-----
MIICaTCCAdICFCb6lRWd0879sxvqCMKvR23T0zhQMA0GCSqGSIb3DQEBCwUAMHMx
CzAJBgNVBAYTAklUMRwwGgYDVQQIDBNUcmVudGlubyBBbHRvIEFkaWdlMQ0wCwYD
VQQHDARQb3ZvMR4wHAYDVQQKDBVOZXR3b3JraW5nIElJIHByb2plY3QxFzAVBgNV
BAMMDmNhLmxvY2FsZG9tYWluMB4XDTIyMDEyNTA5MjYzOVoXDTMyMDEyNTA5MjYz
OVowdDELMAkGA1UEBhMCSVQxHDAaBgNVBAgME1RyZW50aW5vIEFsdG8gQWRpZ2Ux
DTALBgNVBAcMBFBvdm8xHjAcBgNVBAoMFU5ldHdvcmtpbmcgSUkgcHJvamVjdDEY
MBYGA1UEAwwPaHNzLmxvY2FsZG9tYWluMIGfMA0GCSqGSIb3DQEBAQUAA4GNADCB
iQKBgQDyA+lnFnzfjq5tLAWDmsKfONRkR4tJJdfWweTwLXE9j9d0dpFMMdlSNBhV
IcmumcIyHFHeyLFUO03nzCI6yMKnMt4j30LpxKCcpkVfCVKmFRvDWBM+whJGU4T+
vqWhYpLfcffXUoWSbHS2Iubx4ei+vVNS/1jVQBJzK19AnZGO0QIDAQABMA0GCSqG
SIb3DQEBCwUAA4GBAEpwam6oeOfoIM4v4bHjEjRzVf0+AvIKFdYS/RBesBxUvElA
FJMHA2UQEEMH39pwq/MJvL7xX4aNcWFSWeZs/l/eVDTOFDPfXjUZFHJt94TDM/zl
xAZWVp5VRegtJuyZhRpsmt5D6zp00We4okGN2n5bzQELf71mGXhD+ixBw0Ap
-----END CERTIFICATE-----
