Certificate Request:
    Data:
        Version: 1 (0x0)
        Subject: C = IT, ST = Trentino Alto Adige, L = Povo, O = Networking II project, CN = mme.localdomain
        Subject Public Key Info:
            Public Key Algorithm: rsaEncryption
                RSA Public-Key: (1024 bit)
                Modulus:
                    00:c3:94:31:eb:71:d3:fc:f7:02:75:17:bc:34:7f:
                    9b:65:3d:b5:9c:99:36:a6:73:d3:72:e4:3b:7b:04:
                    74:e5:77:4c:d6:c9:74:53:9e:50:e5:31:75:e3:ad:
                    7d:38:74:3a:fd:1d:fb:42:0e:c8:7a:b5:7e:b1:02:
                    d1:fe:af:b0:a8:e3:16:c4:80:fe:e9:4e:40:de:88:
                    f2:6e:22:cb:40:70:16:76:26:b8:ea:ad:2b:86:6e:
                    cb:66:6d:ea:b0:b4:51:52:00:65:27:2c:74:c7:ef:
                    fc:5f:2f:49:7c:c7:a3:34:ce:91:33:fb:70:0c:15:
                    6b:79:84:ab:d3:23:1b:ae:4b
                Exponent: 65537 (0x10001)
        Attributes:
        Requested Extensions:
            X509v3 Basic Constraints: 
                CA:FALSE
            X509v3 Subject Key Identifier: 
                F0:DE:7E:EE:9C:1B:05:16:4E:C6:58:AF:16:4F:29:0F:CE:40:CB:FD
    Signature Algorithm: sha256WithRSAEncryption
         b0:72:09:ba:2f:d2:d5:e0:20:2b:67:1f:f6:c7:eb:b6:85:94:
         e3:5f:16:2f:a2:1b:15:f2:6b:25:c4:36:ef:01:81:da:02:00:
         9c:2c:f7:5c:f8:51:08:b9:fa:0d:78:90:dc:a5:2d:05:92:8a:
         42:77:b3:e7:24:79:89:13:07:a6:83:83:51:38:4b:66:38:e2:
         ed:e3:c7:40:4a:15:80:44:a2:81:d1:4a:fd:9d:45:08:4f:d1:
         70:ba:e0:ef:3a:b0:d7:ef:36:91:a7:81:1a:a1:cf:6d:54:ba:
         ed:c8:c7:4b:f9:00:cd:31:49:29:ce:fa:fb:ec:2c:f1:85:ba:
         ca:99
-----BEGIN CERTIFICATE-----
MIICaTCCAdICFCb6lRWd0879sxvqCMKvR23T0zhRMA0GCSqGSIb3DQEBCwUAMHMx
CzAJBgNVBAYTAklUMRwwGgYDVQQIDBNUcmVudGlubyBBbHRvIEFkaWdlMQ0wCwYD
VQQHDARQb3ZvMR4wHAYDVQQKDBVOZXR3b3JraW5nIElJIHByb2plY3QxFzAVBgNV
BAMMDmNhLmxvY2FsZG9tYWluMB4XDTIyMDEyNTA5MjYzOVoXDTMyMDEyNTA5MjYz
OVowdDELMAkGA1UEBhMCSVQxHDAaBgNVBAgME1RyZW50aW5vIEFsdG8gQWRpZ2Ux
DTALBgNVBAcMBFBvdm8xHjAcBgNVBAoMFU5ldHdvcmtpbmcgSUkgcHJvamVjdDEY
MBYGA1UEAwwPbW1lLmxvY2FsZG9tYWluMIGfMA0GCSqGSIb3DQEBAQUAA4GNADCB
iQKBgQDDlDHrcdP89wJ1F7w0f5tlPbWcmTamc9Ny5Dt7BHTld0zWyXRTnlDlMXXj
rX04dDr9HftCDsh6tX6xAtH+r7Co4xbEgP7pTkDeiPJuIstAcBZ2JrjqrSuGbstm
beqwtFFSAGUnLHTH7/xfL0l8x6M0zpEz+3AMFWt5hKvTIxuuSwIDAQABMA0GCSqG
SIb3DQEBCwUAA4GBAFMSxOgkS89v7P3EukZW1SiDByPy6LKOzJh23f+wtAPrbyVi
C/QDoztujw65m4jMyWCthoC+713SnrKeKcNS0yDrn8tMrPTPMU3hUEc5DjdW/ukJ
mXxlpY5zn79PvERdMfwroUKGINNh9odJsANG3QjHn45+VALqJXxaSNPRuWFK
-----END CERTIFICATE-----
