Certificate Request:
    Data:
        Version: 1 (0x0)
        Subject: C = IT, ST = Trentino Alto Adige, L = Povo, O = Networking II project, CN = mme.localdomain
        Subject Public Key Info:
            Public Key Algorithm: rsaEncryption
                RSA Public-Key: (1024 bit)
                Modulus:
                    00:ca:3e:bc:67:ce:6f:7e:ae:48:53:d1:21:d3:d4:
                    6c:68:2f:38:89:c6:c2:44:fe:f5:a8:ef:11:bf:db:
                    83:e8:b5:64:d2:db:a6:a9:bc:bd:b6:fe:e1:5d:50:
                    b0:2d:12:40:ac:6b:2c:37:56:f2:77:0d:e4:01:6e:
                    1e:9a:43:bc:38:0c:1d:b2:cf:bb:83:e5:ac:cc:29:
                    f0:65:17:b8:f8:d0:d9:ce:02:4d:16:9c:80:d6:9f:
                    30:a7:6d:d8:ff:31:11:5f:7c:cb:34:f4:f4:95:75:
                    a6:0e:16:73:e5:5f:fb:8e:32:0d:28:49:31:7a:9c:
                    95:75:75:ee:c0:6d:46:73:53
                Exponent: 65537 (0x10001)
        Attributes:
        Requested Extensions:
            X509v3 Basic Constraints: 
                CA:FALSE
            X509v3 Subject Key Identifier: 
                9C:ED:CB:20:1D:C7:AF:BD:06:7C:78:06:F4:D3:B2:40:F7:44:4B:21
    Signature Algorithm: sha256WithRSAEncryption
         19:af:25:8c:9a:25:cc:d1:5e:57:0c:6b:28:4f:2b:d5:75:d8:
         2b:2a:e2:5b:de:d2:c2:7b:51:7d:92:0c:5d:e6:74:9b:7d:ef:
         97:e5:e4:d7:af:3a:d3:e6:3c:4c:b0:57:90:57:78:2d:62:17:
         08:ed:7c:02:df:7b:5a:c8:a6:64:55:13:1a:aa:9c:66:fd:1c:
         71:ae:6d:96:f5:47:7c:48:8a:37:28:fc:51:40:34:69:1c:55:
         83:f5:2c:b8:ab:1d:89:67:06:e3:f8:65:1c:be:f4:73:a7:57:
         1e:27:cc:d5:2c:e5:7d:89:9e:7a:16:f1:17:2a:79:6c:f0:f0:
         8b:34
-----BEGIN CERTIFICATE-----
MIICaTCCAdICFFzXhiZcdj+FTSuRMU8G8nLn7uu1MA0GCSqGSIb3DQEBCwUAMHMx
CzAJBgNVBAYTAklUMRwwGgYDVQQIDBNUcmVudGlubyBBbHRvIEFkaWdlMQ0wCwYD
VQQHDARQb3ZvMR4wHAYDVQQKDBVOZXR3b3JraW5nIElJIHByb2plY3QxFzAVBgNV
BAMMDmNhLmxvY2FsZG9tYWluMB4XDTIyMDEyNTE4MjQzOVoXDTMyMDEyNTE4MjQz
OVowdDELMAkGA1UEBhMCSVQxHDAaBgNVBAgME1RyZW50aW5vIEFsdG8gQWRpZ2Ux
DTALBgNVBAcMBFBvdm8xHjAcBgNVBAoMFU5ldHdvcmtpbmcgSUkgcHJvamVjdDEY
MBYGA1UEAwwPbW1lLmxvY2FsZG9tYWluMIGfMA0GCSqGSIb3DQEBAQUAA4GNADCB
iQKBgQDKPrxnzm9+rkhT0SHT1GxoLziJxsJE/vWo7xG/24PotWTS26apvL22/uFd
ULAtEkCsayw3VvJ3DeQBbh6aQ7w4DB2yz7uD5azMKfBlF7j40NnOAk0WnIDWnzCn
bdj/MRFffMs09PSVdaYOFnPlX/uOMg0oSTF6nJV1de7AbUZzUwIDAQABMA0GCSqG
SIb3DQEBCwUAA4GBAKeXjsK2YW/DTWGA8kWNUfS/dDF+jU8Mmfm0+XzqP/B0OEuY
A/6hKlKJoTdZm28OuzfgMEXAovVKn3f70OO70jaQk5woDVQfMskI+TKLhm/EbYI+
9CueBz1RBiOUP06RTzPTvZeXuHAh9kKvjQXfGlrXuapW0JzUQJRDJmUJ6YjR
-----END CERTIFICATE-----
