Certificate Request:
    Data:
        Version: 1 (0x0)
        Subject: C = IT, ST = Trentino Alto Adige, L = Povo, O = Networking II project, CN = pcrf.localdomain
        Subject Public Key Info:
            Public Key Algorithm: rsaEncryption
                RSA Public-Key: (1024 bit)
                Modulus:
                    00:c8:e9:83:c0:52:43:4e:04:6d:ed:95:6a:f6:1a:
                    cf:ab:c7:a1:21:21:c1:2b:91:d0:12:35:09:fa:b2:
                    24:62:bc:7d:cb:b7:c0:a2:35:dd:c9:fd:de:54:c1:
                    46:39:04:9b:6d:b5:71:80:fe:83:11:0b:48:fa:97:
                    25:ca:5e:85:2a:fd:dc:49:ee:ce:be:23:a6:6e:bb:
                    36:7d:a9:93:6a:c8:21:4f:d8:79:70:41:dc:0a:7f:
                    86:68:f4:b8:2f:55:26:e5:39:2a:90:d7:93:96:6a:
                    89:bf:9d:06:a9:ad:a6:a5:6f:25:2c:6a:5f:1b:ab:
                    44:f1:fd:27:0a:ca:45:6a:27
                Exponent: 65537 (0x10001)
        Attributes:
        Requested Extensions:
            X509v3 Basic Constraints: 
                CA:FALSE
            X509v3 Subject Key Identifier: 
                E4:80:32:AE:34:C4:4D:71:68:20:13:AD:84:A3:AE:30:6F:3D:B1:1A
    Signature Algorithm: sha256WithRSAEncryption
         4f:4b:47:f8:00:98:c1:88:a7:88:6b:a3:8a:da:aa:2c:14:f2:
         9e:37:d5:d9:13:03:bc:85:83:d2:3a:11:2b:80:3f:b8:1b:79:
         4e:0c:e3:09:e3:41:61:60:fd:58:b5:cd:d9:5f:21:91:30:42:
         1e:31:cd:97:6a:d8:87:d5:8d:25:d4:ee:98:65:b0:a1:01:1b:
         fe:1d:b4:ac:52:93:98:10:a2:dc:e2:1c:7b:bd:62:a3:3e:f6:
         48:a0:07:81:b7:05:a0:da:c2:59:7b:aa:ea:8d:2d:8d:bf:5f:
         50:1b:c7:4e:d1:37:13:78:20:f8:c5:e1:5c:ba:3f:98:d7:82:
         50:5d
-----BEGIN CERTIFICATE-----
MIICajCCAdMCFFzXhiZcdj+FTSuRMU8G8nLn7uu2MA0GCSqGSIb3DQEBCwUAMHMx
CzAJBgNVBAYTAklUMRwwGgYDVQQIDBNUcmVudGlubyBBbHRvIEFkaWdlMQ0wCwYD
VQQHDARQb3ZvMR4wHAYDVQQKDBVOZXR3b3JraW5nIElJIHByb2plY3QxFzAVBgNV
BAMMDmNhLmxvY2FsZG9tYWluMB4XDTIyMDEyNTE4MjQzOVoXDTMyMDEyNTE4MjQz
OVowdTELMAkGA1UEBhMCSVQxHDAaBgNVBAgME1RyZW50aW5vIEFsdG8gQWRpZ2Ux
DTALBgNVBAcMBFBvdm8xHjAcBgNVBAoMFU5ldHdvcmtpbmcgSUkgcHJvamVjdDEZ
MBcGA1UEAwwQcGNyZi5sb2NhbGRvbWFpbjCBnzANBgkqhkiG9w0BAQEFAAOBjQAw
gYkCgYEAyOmDwFJDTgRt7ZVq9hrPq8ehISHBK5HQEjUJ+rIkYrx9y7fAojXdyf3e
VMFGOQSbbbVxgP6DEQtI+pclyl6FKv3cSe7OviOmbrs2famTasghT9h5cEHcCn+G
aPS4L1Um5TkqkNeTlmqJv50Gqa2mpW8lLGpfG6tE8f0nCspFaicCAwEAATANBgkq
hkiG9w0BAQsFAAOBgQBHEJhFXF5yjuNvnMPoWSTXvFY7u7uPT/J1w14ZYbZE49hs
SqIrb3Izn0DG2C5Ez7U3seb0VjfxCoWbSA5JBOXclxCPORFV7m2ABOi4mDysL4wT
Hwm6+5SMwQCLqZR4//YAg0Ed1iJml+ja4GTlnFLKvxQ64tx2yRXSmfCDDTKZyw==
-----END CERTIFICATE-----
