Certificate Request:
    Data:
        Version: 1 (0x0)
        Subject: C = IT, ST = Trentino Alto Adige, L = Povo, O = Networking II project, CN = pcrf.localdomain
        Subject Public Key Info:
            Public Key Algorithm: rsaEncryption
                RSA Public-Key: (1024 bit)
                Modulus:
                    00:b9:ff:81:d9:1c:25:f3:92:5b:db:f9:18:21:d7:
                    22:59:4b:ef:b8:2a:b6:8f:87:98:3c:7d:1c:ca:9e:
                    be:67:d3:85:36:81:ed:b5:a6:75:2b:a7:4c:59:5c:
                    bd:a7:03:f3:80:cb:39:67:d9:fc:e9:e5:da:38:96:
                    1a:be:a9:15:7c:84:fc:f3:3b:64:72:0a:43:53:9d:
                    72:a1:83:e2:f6:69:d6:b1:98:88:c6:d6:70:3c:47:
                    69:e2:cb:b8:75:2f:ab:a1:c5:db:0f:1b:c5:10:0c:
                    1a:a6:88:05:b8:01:01:da:57:1a:21:7f:0f:53:55:
                    4c:14:86:44:5a:61:29:d2:67
                Exponent: 65537 (0x10001)
        Attributes:
        Requested Extensions:
            X509v3 Basic Constraints: 
                CA:FALSE
            X509v3 Subject Key Identifier: 
                31:7F:AE:1E:6E:34:6A:27:D0:A8:8F:B0:D9:BB:84:21:91:C7:BD:05
    Signature Algorithm: sha256WithRSAEncryption
         49:68:48:6b:6b:47:6e:f4:7d:80:ad:dc:00:50:a3:17:ad:d8:
         a4:c8:49:da:6c:97:0b:7d:77:64:0a:7c:65:d2:e5:15:89:d5:
         dd:bf:93:b9:5b:d3:a8:8f:26:c1:9b:f4:9c:e2:d9:a2:67:9b:
         4c:d8:03:71:70:5f:30:27:a1:52:64:9d:33:8e:60:70:85:0e:
         f5:b0:f4:f9:a8:c4:7d:2f:73:1c:bf:b0:28:93:97:14:d7:61:
         76:79:6a:f9:63:73:d1:cf:5c:44:60:c0:68:e3:35:e3:69:4a:
         7b:7d:bb:5c:b3:45:bc:89:9f:b5:56:54:2d:71:95:1a:11:6c:
         bb:a9
-----BEGIN CERTIFICATE-----
MIICajCCAdMCFCb6lRWd0879sxvqCMKvR23T0zhSMA0GCSqGSIb3DQEBCwUAMHMx
CzAJBgNVBAYTAklUMRwwGgYDVQQIDBNUcmVudGlubyBBbHRvIEFkaWdlMQ0wCwYD
VQQHDARQb3ZvMR4wHAYDVQQKDBVOZXR3b3JraW5nIElJIHByb2plY3QxFzAVBgNV
BAMMDmNhLmxvY2FsZG9tYWluMB4XDTIyMDEyNTA5MjYzOVoXDTMyMDEyNTA5MjYz
OVowdTELMAkGA1UEBhMCSVQxHDAaBgNVBAgME1RyZW50aW5vIEFsdG8gQWRpZ2Ux
DTALBgNVBAcMBFBvdm8xHjAcBgNVBAoMFU5ldHdvcmtpbmcgSUkgcHJvamVjdDEZ
MBcGA1UEAwwQcGNyZi5sb2NhbGRvbWFpbjCBnzANBgkqhkiG9w0BAQEFAAOBjQAw
gYkCgYEAuf+B2Rwl85Jb2/kYIdciWUvvuCq2j4eYPH0cyp6+Z9OFNoHttaZ1K6dM
WVy9pwPzgMs5Z9n86eXaOJYavqkVfIT88ztkcgpDU51yoYPi9mnWsZiIxtZwPEdp
4su4dS+rocXbDxvFEAwapogFuAEB2lcaIX8PU1VMFIZEWmEp0mcCAwEAATANBgkq
hkiG9w0BAQsFAAOBgQDY7H6Uyw0HniBYLfVQuNY3B7Yb7C1njrbkUhXBIf2mGe2z
nIyHUB7PRUAZclZ+Tg+IStVVMnbU3mXSzqw7Yp3dCSxSIR5yUFKhFbR7Z9d03WqE
0gNIb7DoCGCuMWonc1Sm7mOEYOf5Ss42sLmp62+W+lgBvSxXC24UwIqbJPAkzA==
-----END CERTIFICATE-----
