Certificate Request:
    Data:
        Version: 1 (0x0)
        Subject: C = IT, ST = Trentino Alto Adige, L = Povo, O = Networking II project, CN = smf.localdomain
        Subject Public Key Info:
            Public Key Algorithm: rsaEncryption
                RSA Public-Key: (1024 bit)
                Modulus:
                    00:b2:c5:6c:f1:19:50:50:69:01:87:77:03:3e:e0:
                    a6:a1:e6:fc:43:c1:49:9a:30:53:93:8e:b9:75:23:
                    1f:67:a3:61:92:ed:1b:45:36:65:e4:48:e7:3d:c5:
                    70:92:aa:de:5c:6f:6a:ae:16:59:81:18:be:35:a7:
                    a4:d4:60:a0:75:b9:c1:cc:db:7d:88:23:a6:5a:8b:
                    48:56:0d:29:86:e3:72:88:14:08:45:72:56:12:07:
                    60:9d:63:ea:7f:ae:7b:a0:62:ea:cb:35:ea:8f:f6:
                    fc:3a:fb:4a:6d:2c:1b:26:ef:24:76:b5:56:ae:05:
                    4d:1d:d3:cf:4e:34:d3:55:35
                Exponent: 65537 (0x10001)
        Attributes:
        Requested Extensions:
            X509v3 Basic Constraints: 
                CA:FALSE
            X509v3 Subject Key Identifier: 
                72:E9:91:3A:2B:9F:3D:CB:A3:2A:DB:8F:56:E0:1D:22:D9:8E:17:58
    Signature Algorithm: sha256WithRSAEncryption
         72:26:bb:ba:60:38:9b:1f:ce:79:dd:48:0b:66:5a:bc:eb:d1:
         44:d8:ac:62:d3:5c:80:83:c7:61:fe:51:bc:2f:f7:f7:6f:56:
         9e:01:4b:a5:2a:f5:89:df:15:1f:e6:13:f9:84:08:0e:62:75:
         83:ba:ed:8c:20:38:e5:aa:cd:d3:03:73:b6:fd:6f:48:37:c7:
         a5:1f:d2:98:1f:a0:e0:3e:9e:94:2b:5b:6b:26:38:d0:20:1f:
         80:74:be:b7:2f:78:3e:52:03:d1:ce:d6:84:47:5b:6e:83:80:
         ad:00:ea:f4:c3:1c:1e:4d:21:c1:2a:e4:6b:bd:4b:78:54:f5:
         46:eb
-----BEGIN CERTIFICATE-----
MIICaTCCAdICFCb6lRWd0879sxvqCMKvR23T0zhTMA0GCSqGSIb3DQEBCwUAMHMx
CzAJBgNVBAYTAklUMRwwGgYDVQQIDBNUcmVudGlubyBBbHRvIEFkaWdlMQ0wCwYD
VQQHDARQb3ZvMR4wHAYDVQQKDBVOZXR3b3JraW5nIElJIHByb2plY3QxFzAVBgNV
BAMMDmNhLmxvY2FsZG9tYWluMB4XDTIyMDEyNTA5MjYzOVoXDTMyMDEyNTA5MjYz
OVowdDELMAkGA1UEBhMCSVQxHDAaBgNVBAgME1RyZW50aW5vIEFsdG8gQWRpZ2Ux
DTALBgNVBAcMBFBvdm8xHjAcBgNVBAoMFU5ldHdvcmtpbmcgSUkgcHJvamVjdDEY
MBYGA1UEAwwPc21mLmxvY2FsZG9tYWluMIGfMA0GCSqGSIb3DQEBAQUAA4GNADCB
iQKBgQCyxWzxGVBQaQGHdwM+4Kah5vxDwUmaMFOTjrl1Ix9no2GS7RtFNmXkSOc9
xXCSqt5cb2quFlmBGL41p6TUYKB1ucHM232II6Zai0hWDSmG43KIFAhFclYSB2Cd
Y+p/rnugYurLNeqP9vw6+0ptLBsm7yR2tVauBU0d089ONNNVNQIDAQABMA0GCSqG
SIb3DQEBCwUAA4GBAMk8dBaMjmyGfawsloERd99Prer3zQ26edbjj6rkXAgXHIZZ
A2UCWIMVtWF5USvzlDPpl5wexy4pv91DuxySvYCuqo8iwNmbBXD/DDji892E8j8A
lg78IPaJZHrNMAPI26hh3Py+HzhkLTDbWfUlAlD8gHJq1imsTXE0D5B4a6EO
-----END CERTIFICATE-----
