Certificate Request:
    Data:
        Version: 1 (0x0)
        Subject: C = IT, ST = Trentino Alto Adige, L = Povo, O = Networking II project, CN = smf.localdomain
        Subject Public Key Info:
            Public Key Algorithm: rsaEncryption
                RSA Public-Key: (1024 bit)
                Modulus:
                    00:bf:89:c6:1a:5c:07:ff:0f:83:f0:60:a9:fc:67:
                    45:9d:a8:b8:cd:e3:6c:e8:46:93:89:ac:02:e1:6f:
                    b3:41:70:99:4a:e9:17:4b:c4:06:ce:27:0c:6a:5e:
                    94:29:71:2c:01:8f:15:7c:27:16:66:04:22:b7:5e:
                    ab:ba:6b:35:af:d0:81:a3:a2:c7:13:9d:8e:78:2f:
                    af:79:ff:57:95:27:71:07:1f:2e:15:6a:be:41:34:
                    25:1c:9b:ea:8b:07:0c:f2:36:60:aa:a6:8b:41:bd:
                    4a:45:fe:b9:5e:74:7e:38:5d:b2:60:17:4c:14:d2:
                    ec:48:20:70:41:20:5d:b6:95
                Exponent: 65537 (0x10001)
        Attributes:
        Requested Extensions:
            X509v3 Basic Constraints: 
                CA:FALSE
            X509v3 Subject Key Identifier: 
                BA:46:AD:C3:58:2A:AE:97:FF:11:5C:DF:9B:D5:55:AF:0B:F5:2B:68
    Signature Algorithm: sha256WithRSAEncryption
         35:e8:14:36:25:6f:bf:87:9f:3f:05:e9:db:e0:21:86:7b:64:
         bf:b6:d5:a4:f0:17:1f:05:30:f4:0e:dd:9d:74:b1:3b:64:32:
         1a:d9:ee:c6:f2:f3:10:8f:c1:55:35:bc:11:bf:dd:ab:1c:5f:
         4a:10:61:62:cf:79:01:3c:51:3f:4a:4b:9d:f9:34:3f:2b:da:
         1e:58:25:2b:16:b4:ee:23:07:d9:17:cc:09:7f:de:6a:01:3f:
         90:0b:83:31:81:93:eb:91:16:8f:f8:95:31:aa:f6:f7:a3:69:
         6b:40:1d:ef:b5:b5:5b:21:10:7a:f6:96:56:f8:e7:7b:7c:df:
         a3:2c
-----BEGIN CERTIFICATE-----
MIICaTCCAdICFFzXhiZcdj+FTSuRMU8G8nLn7uu3MA0GCSqGSIb3DQEBCwUAMHMx
CzAJBgNVBAYTAklUMRwwGgYDVQQIDBNUcmVudGlubyBBbHRvIEFkaWdlMQ0wCwYD
VQQHDARQb3ZvMR4wHAYDVQQKDBVOZXR3b3JraW5nIElJIHByb2plY3QxFzAVBgNV
BAMMDmNhLmxvY2FsZG9tYWluMB4XDTIyMDEyNTE4MjQzOVoXDTMyMDEyNTE4MjQz
OVowdDELMAkGA1UEBhMCSVQxHDAaBgNVBAgME1RyZW50aW5vIEFsdG8gQWRpZ2Ux
DTALBgNVBAcMBFBvdm8xHjAcBgNVBAoMFU5ldHdvcmtpbmcgSUkgcHJvamVjdDEY
MBYGA1UEAwwPc21mLmxvY2FsZG9tYWluMIGfMA0GCSqGSIb3DQEBAQUAA4GNADCB
iQKBgQC/icYaXAf/D4PwYKn8Z0WdqLjN42zoRpOJrALhb7NBcJlK6RdLxAbOJwxq
XpQpcSwBjxV8JxZmBCK3Xqu6azWv0IGjoscTnY54L695/1eVJ3EHHy4Var5BNCUc
m+qLBwzyNmCqpotBvUpF/rledH44XbJgF0wU0uxIIHBBIF22lQIDAQABMA0GCSqG
SIb3DQEBCwUAA4GBAImH705mQUAlI2dDnAnPwqdD+dmuuypaIEvOvriQ1UTuEpNG
lG9nrwO9YtTRoTBnfsbbpJpJwoVs/ZfSN9dqp6IChNg0LZAgbEL52Z1ykST3WcOi
9XDLeihF3zsfGx/XvfCmVDHX1VcFEgzyVA38jCxkUG9Vnc0iMTyOX8i/IFcp
-----END CERTIFICATE-----
